	.cpu cortex-m4
	.arch armv7e-m
	.fpu fpv4-sp-d16
	.eabi_attribute 27, 1
	.eabi_attribute 28, 1
	.eabi_attribute 20, 1
	.eabi_attribute 21, 1
	.eabi_attribute 23, 3
	.eabi_attribute 24, 1
	.eabi_attribute 25, 1
	.eabi_attribute 26, 1
	.eabi_attribute 30, 6
	.eabi_attribute 34, 1
	.eabi_attribute 38, 1
	.eabi_attribute 18, 4
	.file	"sys_button.c"
	.text
.Ltext0:
	.section	.text.sd_mbr_command,"ax",%progbits
	.align	1
	.syntax unified
	.thumb
	.thumb_func
	.type	sd_mbr_command, %function
sd_mbr_command:
.LFB150:
	.file 1 "../../../../../../components/softdevice/s132/headers/nrf52/nrf_mbr.h"
	.loc 1 257 1
	@ Naked Function: prologue and epilogue provided by programmer.
	@ args = 0, pretend = 0, frame = 0
	@ frame_needed = 0, uses_anonymous_args = 0
	.loc 1 257 1
	.syntax unified
@ 257 "../../../../../../components/softdevice/s132/headers/nrf52/nrf_mbr.h" 1
	svc #24
bx r14
@ 0 "" 2
	.thumb
	.syntax unified
	nop
	mov	r0, r3
.LFE150:
	.size	sd_mbr_command, .-sd_mbr_command
	.section	.text.sd_mutex_new,"ax",%progbits
	.align	1
	.syntax unified
	.thumb
	.thumb_func
	.type	sd_mutex_new, %function
sd_mutex_new:
.LFB176:
	.file 2 "../../../../../../components/softdevice/s132/headers/nrf_soc.h"
	.loc 2 424 1
	@ Naked Function: prologue and epilogue provided by programmer.
	@ args = 0, pretend = 0, frame = 0
	@ frame_needed = 0, uses_anonymous_args = 0
	.loc 2 424 1
	.syntax unified
@ 424 "../../../../../../components/softdevice/s132/headers/nrf_soc.h" 1
	svc #44
bx r14
@ 0 "" 2
	.thumb
	.syntax unified
	nop
	mov	r0, r3
.LFE176:
	.size	sd_mutex_new, .-sd_mutex_new
	.section	.text.sd_mutex_acquire,"ax",%progbits
	.align	1
	.syntax unified
	.thumb
	.thumb_func
	.type	sd_mutex_acquire, %function
sd_mutex_acquire:
.LFB177:
	.loc 2 433 1
	@ Naked Function: prologue and epilogue provided by programmer.
	@ args = 0, pretend = 0, frame = 0
	@ frame_needed = 0, uses_anonymous_args = 0
	.loc 2 433 1
	.syntax unified
@ 433 "../../../../../../components/softdevice/s132/headers/nrf_soc.h" 1
	svc #45
bx r14
@ 0 "" 2
	.thumb
	.syntax unified
	nop
	mov	r0, r3
.LFE177:
	.size	sd_mutex_acquire, .-sd_mutex_acquire
	.section	.text.sd_mutex_release,"ax",%progbits
	.align	1
	.syntax unified
	.thumb
	.thumb_func
	.type	sd_mutex_release, %function
sd_mutex_release:
.LFB178:
	.loc 2 441 1
	@ Naked Function: prologue and epilogue provided by programmer.
	@ args = 0, pretend = 0, frame = 0
	@ frame_needed = 0, uses_anonymous_args = 0
	.loc 2 441 1
	.syntax unified
@ 441 "../../../../../../components/softdevice/s132/headers/nrf_soc.h" 1
	svc #46
bx r14
@ 0 "" 2
	.thumb
	.syntax unified
	nop
	mov	r0, r3
.LFE178:
	.size	sd_mutex_release, .-sd_mutex_release
	.section	.text.sd_rand_application_pool_capacity_get,"ax",%progbits
	.align	1
	.syntax unified
	.thumb
	.thumb_func
	.type	sd_rand_application_pool_capacity_get, %function
sd_rand_application_pool_capacity_get:
.LFB179:
	.loc 2 449 1
	@ Naked Function: prologue and epilogue provided by programmer.
	@ args = 0, pretend = 0, frame = 0
	@ frame_needed = 0, uses_anonymous_args = 0
	.loc 2 449 1
	.syntax unified
@ 449 "../../../../../../components/softdevice/s132/headers/nrf_soc.h" 1
	svc #47
bx r14
@ 0 "" 2
	.thumb
	.syntax unified
	nop
	mov	r0, r3
.LFE179:
	.size	sd_rand_application_pool_capacity_get, .-sd_rand_application_pool_capacity_get
	.section	.text.sd_rand_application_bytes_available_get,"ax",%progbits
	.align	1
	.syntax unified
	.thumb
	.thumb_func
	.type	sd_rand_application_bytes_available_get, %function
sd_rand_application_bytes_available_get:
.LFB180:
	.loc 2 457 1
	@ Naked Function: prologue and epilogue provided by programmer.
	@ args = 0, pretend = 0, frame = 0
	@ frame_needed = 0, uses_anonymous_args = 0
	.loc 2 457 1
	.syntax unified
@ 457 "../../../../../../components/softdevice/s132/headers/nrf_soc.h" 1
	svc #48
bx r14
@ 0 "" 2
	.thumb
	.syntax unified
	nop
	mov	r0, r3
.LFE180:
	.size	sd_rand_application_bytes_available_get, .-sd_rand_application_bytes_available_get
	.section	.text.sd_rand_application_vector_get,"ax",%progbits
	.align	1
	.syntax unified
	.thumb
	.thumb_func
	.type	sd_rand_application_vector_get, %function
sd_rand_application_vector_get:
.LFB181:
	.loc 2 467 1
	@ Naked Function: prologue and epilogue provided by programmer.
	@ args = 0, pretend = 0, frame = 0
	@ frame_needed = 0, uses_anonymous_args = 0
	.loc 2 467 1
	.syntax unified
@ 467 "../../../../../../components/softdevice/s132/headers/nrf_soc.h" 1
	svc #49
bx r14
@ 0 "" 2
	.thumb
	.syntax unified
	nop
	mov	r0, r3
.LFE181:
	.size	sd_rand_application_vector_get, .-sd_rand_application_vector_get
	.section	.text.sd_power_reset_reason_get,"ax",%progbits
	.align	1
	.syntax unified
	.thumb
	.thumb_func
	.type	sd_power_reset_reason_get, %function
sd_power_reset_reason_get:
.LFB182:
	.loc 2 475 1
	@ Naked Function: prologue and epilogue provided by programmer.
	@ args = 0, pretend = 0, frame = 0
	@ frame_needed = 0, uses_anonymous_args = 0
	.loc 2 475 1
	.syntax unified
@ 475 "../../../../../../components/softdevice/s132/headers/nrf_soc.h" 1
	svc #52
bx r14
@ 0 "" 2
	.thumb
	.syntax unified
	nop
	mov	r0, r3
.LFE182:
	.size	sd_power_reset_reason_get, .-sd_power_reset_reason_get
	.section	.text.sd_power_reset_reason_clr,"ax",%progbits
	.align	1
	.syntax unified
	.thumb
	.thumb_func
	.type	sd_power_reset_reason_clr, %function
sd_power_reset_reason_clr:
.LFB183:
	.loc 2 483 1
	@ Naked Function: prologue and epilogue provided by programmer.
	@ args = 0, pretend = 0, frame = 0
	@ frame_needed = 0, uses_anonymous_args = 0
	.loc 2 483 1
	.syntax unified
@ 483 "../../../../../../components/softdevice/s132/headers/nrf_soc.h" 1
	svc #53
bx r14
@ 0 "" 2
	.thumb
	.syntax unified
	nop
	mov	r0, r3
.LFE183:
	.size	sd_power_reset_reason_clr, .-sd_power_reset_reason_clr
	.section	.text.sd_power_mode_set,"ax",%progbits
	.align	1
	.syntax unified
	.thumb
	.thumb_func
	.type	sd_power_mode_set, %function
sd_power_mode_set:
.LFB184:
	.loc 2 492 1
	@ Naked Function: prologue and epilogue provided by programmer.
	@ args = 0, pretend = 0, frame = 0
	@ frame_needed = 0, uses_anonymous_args = 0
	.loc 2 492 1
	.syntax unified
@ 492 "../../../../../../components/softdevice/s132/headers/nrf_soc.h" 1
	svc #50
bx r14
@ 0 "" 2
	.thumb
	.syntax unified
	nop
	mov	r0, r3
.LFE184:
	.size	sd_power_mode_set, .-sd_power_mode_set
	.section	.text.sd_power_system_off,"ax",%progbits
	.align	1
	.syntax unified
	.thumb
	.thumb_func
	.type	sd_power_system_off, %function
sd_power_system_off:
.LFB185:
	.loc 2 498 1
	@ Naked Function: prologue and epilogue provided by programmer.
	@ args = 0, pretend = 0, frame = 0
	@ frame_needed = 0, uses_anonymous_args = 0
	.loc 2 498 1
	.syntax unified
@ 498 "../../../../../../components/softdevice/s132/headers/nrf_soc.h" 1
	svc #51
bx r14
@ 0 "" 2
	.thumb
	.syntax unified
	nop
	mov	r0, r3
.LFE185:
	.size	sd_power_system_off, .-sd_power_system_off
	.section	.text.sd_power_pof_enable,"ax",%progbits
	.align	1
	.syntax unified
	.thumb
	.thumb_func
	.type	sd_power_pof_enable, %function
sd_power_pof_enable:
.LFB186:
	.loc 2 509 1
	@ Naked Function: prologue and epilogue provided by programmer.
	@ args = 0, pretend = 0, frame = 0
	@ frame_needed = 0, uses_anonymous_args = 0
	.loc 2 509 1
	.syntax unified
@ 509 "../../../../../../components/softdevice/s132/headers/nrf_soc.h" 1
	svc #54
bx r14
@ 0 "" 2
	.thumb
	.syntax unified
	nop
	mov	r0, r3
.LFE186:
	.size	sd_power_pof_enable, .-sd_power_pof_enable
	.section	.text.sd_power_pof_threshold_set,"ax",%progbits
	.align	1
	.syntax unified
	.thumb
	.thumb_func
	.type	sd_power_pof_threshold_set, %function
sd_power_pof_threshold_set:
.LFB187:
	.loc 2 520 1
	@ Naked Function: prologue and epilogue provided by programmer.
	@ args = 0, pretend = 0, frame = 0
	@ frame_needed = 0, uses_anonymous_args = 0
	.loc 2 520 1
	.syntax unified
@ 520 "../../../../../../components/softdevice/s132/headers/nrf_soc.h" 1
	svc #55
bx r14
@ 0 "" 2
	.thumb
	.syntax unified
	nop
	mov	r0, r3
.LFE187:
	.size	sd_power_pof_threshold_set, .-sd_power_pof_threshold_set
	.section	.text.sd_power_ram_power_set,"ax",%progbits
	.align	1
	.syntax unified
	.thumb
	.thumb_func
	.type	sd_power_ram_power_set, %function
sd_power_ram_power_set:
.LFB188:
	.loc 2 530 1
	@ Naked Function: prologue and epilogue provided by programmer.
	@ args = 0, pretend = 0, frame = 0
	@ frame_needed = 0, uses_anonymous_args = 0
	.loc 2 530 1
	.syntax unified
@ 530 "../../../../../../components/softdevice/s132/headers/nrf_soc.h" 1
	svc #57
bx r14
@ 0 "" 2
	.thumb
	.syntax unified
	nop
	mov	r0, r3
.LFE188:
	.size	sd_power_ram_power_set, .-sd_power_ram_power_set
	.section	.text.sd_power_ram_power_clr,"ax",%progbits
	.align	1
	.syntax unified
	.thumb
	.thumb_func
	.type	sd_power_ram_power_clr, %function
sd_power_ram_power_clr:
.LFB189:
	.loc 2 539 1
	@ Naked Function: prologue and epilogue provided by programmer.
	@ args = 0, pretend = 0, frame = 0
	@ frame_needed = 0, uses_anonymous_args = 0
	.loc 2 539 1
	.syntax unified
@ 539 "../../../../../../components/softdevice/s132/headers/nrf_soc.h" 1
	svc #58
bx r14
@ 0 "" 2
	.thumb
	.syntax unified
	nop
	mov	r0, r3
.LFE189:
	.size	sd_power_ram_power_clr, .-sd_power_ram_power_clr
	.section	.text.sd_power_ram_power_get,"ax",%progbits
	.align	1
	.syntax unified
	.thumb
	.thumb_func
	.type	sd_power_ram_power_get, %function
sd_power_ram_power_get:
.LFB190:
	.loc 2 548 1
	@ Naked Function: prologue and epilogue provided by programmer.
	@ args = 0, pretend = 0, frame = 0
	@ frame_needed = 0, uses_anonymous_args = 0
	.loc 2 548 1
	.syntax unified
@ 548 "../../../../../../components/softdevice/s132/headers/nrf_soc.h" 1
	svc #59
bx r14
@ 0 "" 2
	.thumb
	.syntax unified
	nop
	mov	r0, r3
.LFE190:
	.size	sd_power_ram_power_get, .-sd_power_ram_power_get
	.section	.text.sd_power_gpregret_set,"ax",%progbits
	.align	1
	.syntax unified
	.thumb
	.thumb_func
	.type	sd_power_gpregret_set, %function
sd_power_gpregret_set:
.LFB191:
	.loc 2 557 1
	@ Naked Function: prologue and epilogue provided by programmer.
	@ args = 0, pretend = 0, frame = 0
	@ frame_needed = 0, uses_anonymous_args = 0
	.loc 2 557 1
	.syntax unified
@ 557 "../../../../../../components/softdevice/s132/headers/nrf_soc.h" 1
	svc #60
bx r14
@ 0 "" 2
	.thumb
	.syntax unified
	nop
	mov	r0, r3
.LFE191:
	.size	sd_power_gpregret_set, .-sd_power_gpregret_set
	.section	.text.sd_power_gpregret_clr,"ax",%progbits
	.align	1
	.syntax unified
	.thumb
	.thumb_func
	.type	sd_power_gpregret_clr, %function
sd_power_gpregret_clr:
.LFB192:
	.loc 2 566 1
	@ Naked Function: prologue and epilogue provided by programmer.
	@ args = 0, pretend = 0, frame = 0
	@ frame_needed = 0, uses_anonymous_args = 0
	.loc 2 566 1
	.syntax unified
@ 566 "../../../../../../components/softdevice/s132/headers/nrf_soc.h" 1
	svc #61
bx r14
@ 0 "" 2
	.thumb
	.syntax unified
	nop
	mov	r0, r3
.LFE192:
	.size	sd_power_gpregret_clr, .-sd_power_gpregret_clr
	.section	.text.sd_power_gpregret_get,"ax",%progbits
	.align	1
	.syntax unified
	.thumb
	.thumb_func
	.type	sd_power_gpregret_get, %function
sd_power_gpregret_get:
.LFB193:
	.loc 2 575 1
	@ Naked Function: prologue and epilogue provided by programmer.
	@ args = 0, pretend = 0, frame = 0
	@ frame_needed = 0, uses_anonymous_args = 0
	.loc 2 575 1
	.syntax unified
@ 575 "../../../../../../components/softdevice/s132/headers/nrf_soc.h" 1
	svc #62
bx r14
@ 0 "" 2
	.thumb
	.syntax unified
	nop
	mov	r0, r3
.LFE193:
	.size	sd_power_gpregret_get, .-sd_power_gpregret_get
	.section	.text.sd_power_dcdc_mode_set,"ax",%progbits
	.align	1
	.syntax unified
	.thumb
	.thumb_func
	.type	sd_power_dcdc_mode_set, %function
sd_power_dcdc_mode_set:
.LFB194:
	.loc 2 584 1
	@ Naked Function: prologue and epilogue provided by programmer.
	@ args = 0, pretend = 0, frame = 0
	@ frame_needed = 0, uses_anonymous_args = 0
	.loc 2 584 1
	.syntax unified
@ 584 "../../../../../../components/softdevice/s132/headers/nrf_soc.h" 1
	svc #63
bx r14
@ 0 "" 2
	.thumb
	.syntax unified
	nop
	mov	r0, r3
.LFE194:
	.size	sd_power_dcdc_mode_set, .-sd_power_dcdc_mode_set
	.section	.text.sd_clock_hfclk_request,"ax",%progbits
	.align	1
	.syntax unified
	.thumb
	.thumb_func
	.type	sd_clock_hfclk_request, %function
sd_clock_hfclk_request:
.LFB195:
	.loc 2 597 1
	@ Naked Function: prologue and epilogue provided by programmer.
	@ args = 0, pretend = 0, frame = 0
	@ frame_needed = 0, uses_anonymous_args = 0
	.loc 2 597 1
	.syntax unified
@ 597 "../../../../../../components/softdevice/s132/headers/nrf_soc.h" 1
	svc #66
bx r14
@ 0 "" 2
	.thumb
	.syntax unified
	nop
	mov	r0, r3
.LFE195:
	.size	sd_clock_hfclk_request, .-sd_clock_hfclk_request
	.section	.text.sd_clock_hfclk_release,"ax",%progbits
	.align	1
	.syntax unified
	.thumb
	.thumb_func
	.type	sd_clock_hfclk_release, %function
sd_clock_hfclk_release:
.LFB196:
	.loc 2 608 1
	@ Naked Function: prologue and epilogue provided by programmer.
	@ args = 0, pretend = 0, frame = 0
	@ frame_needed = 0, uses_anonymous_args = 0
	.loc 2 608 1
	.syntax unified
@ 608 "../../../../../../components/softdevice/s132/headers/nrf_soc.h" 1
	svc #67
bx r14
@ 0 "" 2
	.thumb
	.syntax unified
	nop
	mov	r0, r3
.LFE196:
	.size	sd_clock_hfclk_release, .-sd_clock_hfclk_release
	.section	.text.sd_clock_hfclk_is_running,"ax",%progbits
	.align	1
	.syntax unified
	.thumb
	.thumb_func
	.type	sd_clock_hfclk_is_running, %function
sd_clock_hfclk_is_running:
.LFB197:
	.loc 2 619 1
	@ Naked Function: prologue and epilogue provided by programmer.
	@ args = 0, pretend = 0, frame = 0
	@ frame_needed = 0, uses_anonymous_args = 0
	.loc 2 619 1
	.syntax unified
@ 619 "../../../../../../components/softdevice/s132/headers/nrf_soc.h" 1
	svc #68
bx r14
@ 0 "" 2
	.thumb
	.syntax unified
	nop
	mov	r0, r3
.LFE197:
	.size	sd_clock_hfclk_is_running, .-sd_clock_hfclk_is_running
	.section	.text.sd_app_evt_wait,"ax",%progbits
	.align	1
	.syntax unified
	.thumb
	.thumb_func
	.type	sd_app_evt_wait, %function
sd_app_evt_wait:
.LFB198:
	.loc 2 647 1
	@ Naked Function: prologue and epilogue provided by programmer.
	@ args = 0, pretend = 0, frame = 0
	@ frame_needed = 0, uses_anonymous_args = 0
	.loc 2 647 1
	.syntax unified
@ 647 "../../../../../../components/softdevice/s132/headers/nrf_soc.h" 1
	svc #65
bx r14
@ 0 "" 2
	.thumb
	.syntax unified
	nop
	mov	r0, r3
.LFE198:
	.size	sd_app_evt_wait, .-sd_app_evt_wait
	.section	.text.sd_ppi_channel_enable_get,"ax",%progbits
	.align	1
	.syntax unified
	.thumb
	.thumb_func
	.type	sd_ppi_channel_enable_get, %function
sd_ppi_channel_enable_get:
.LFB199:
	.loc 2 655 1
	@ Naked Function: prologue and epilogue provided by programmer.
	@ args = 0, pretend = 0, frame = 0
	@ frame_needed = 0, uses_anonymous_args = 0
	.loc 2 655 1
	.syntax unified
@ 655 "../../../../../../components/softdevice/s132/headers/nrf_soc.h" 1
	svc #32
bx r14
@ 0 "" 2
	.thumb
	.syntax unified
	nop
	mov	r0, r3
.LFE199:
	.size	sd_ppi_channel_enable_get, .-sd_ppi_channel_enable_get
	.section	.text.sd_ppi_channel_enable_set,"ax",%progbits
	.align	1
	.syntax unified
	.thumb
	.thumb_func
	.type	sd_ppi_channel_enable_set, %function
sd_ppi_channel_enable_set:
.LFB200:
	.loc 2 663 1
	@ Naked Function: prologue and epilogue provided by programmer.
	@ args = 0, pretend = 0, frame = 0
	@ frame_needed = 0, uses_anonymous_args = 0
	.loc 2 663 1
	.syntax unified
@ 663 "../../../../../../components/softdevice/s132/headers/nrf_soc.h" 1
	svc #33
bx r14
@ 0 "" 2
	.thumb
	.syntax unified
	nop
	mov	r0, r3
.LFE200:
	.size	sd_ppi_channel_enable_set, .-sd_ppi_channel_enable_set
	.section	.text.sd_ppi_channel_enable_clr,"ax",%progbits
	.align	1
	.syntax unified
	.thumb
	.thumb_func
	.type	sd_ppi_channel_enable_clr, %function
sd_ppi_channel_enable_clr:
.LFB201:
	.loc 2 671 1
	@ Naked Function: prologue and epilogue provided by programmer.
	@ args = 0, pretend = 0, frame = 0
	@ frame_needed = 0, uses_anonymous_args = 0
	.loc 2 671 1
	.syntax unified
@ 671 "../../../../../../components/softdevice/s132/headers/nrf_soc.h" 1
	svc #34
bx r14
@ 0 "" 2
	.thumb
	.syntax unified
	nop
	mov	r0, r3
.LFE201:
	.size	sd_ppi_channel_enable_clr, .-sd_ppi_channel_enable_clr
	.section	.text.sd_ppi_channel_assign,"ax",%progbits
	.align	1
	.syntax unified
	.thumb
	.thumb_func
	.type	sd_ppi_channel_assign, %function
sd_ppi_channel_assign:
.LFB202:
	.loc 2 682 1
	@ Naked Function: prologue and epilogue provided by programmer.
	@ args = 0, pretend = 0, frame = 0
	@ frame_needed = 0, uses_anonymous_args = 0
	.loc 2 682 1
	.syntax unifi